   1               		.file	"Programs.cpp"
   2               	__SP_H__ = 0x3e
   3               	__SP_L__ = 0x3d
   4               	__SREG__ = 0x3f
   5               	__tmp_reg__ = 0
   6               	__zero_reg__ = 1
   7               		.text
   8               	.Ltext0:
   9               		.cfi_sections	.debug_frame
  10               	.global	_ZN7ProgramD2Ev
  12               	_ZN7ProgramD2Ev:
  13               	.LFB14:
  14               		.file 1 "Programs.cpp"
   1:Programs.cpp  **** #include "Programs.h"
   2:Programs.cpp  **** 
   3:Programs.cpp  **** //0: "r3" fractionné 30s/30s 10reps (10 min)
   4:Programs.cpp  **** //1: "r4" fractionné 45s/45s 10reps (15 min)
   5:Programs.cpp  **** //2: "F3" fractionné 30s/30s 15reps (15 min)
   6:Programs.cpp  **** //3: "F4" fractionné 45s/45s 15reps (22.5min)
   7:Programs.cpp  **** //4: "L0" Luc Léger 12 paliers
   8:Programs.cpp  **** 
   9:Programs.cpp  **** 
  10:Programs.cpp  **** const LCD::Symbol Program::Sym1[]={LCD::r,LCD::r,LCD::F,LCD::F,LCD::L};
  11:Programs.cpp  **** const uint8_t Program::Sym2[]={3,4,3,4,0};
  12:Programs.cpp  **** 
  13:Programs.cpp  **** const uint8_t Program::LL_Tlap[]={90,85,80,76,72,69,65,58,55,53,51,50,48};
  14:Programs.cpp  **** const uint16_t Program::LL_Tnext[]={1170,1763,2323,2929,3577,4126,4716,5292,5901,6487,7104,7700,832
  15:Programs.cpp  **** 
  16:Programs.cpp  **** Program::Program(LCD *l){
  17:Programs.cpp  ****     myLCD=l;
  18:Programs.cpp  ****     selectedProgram=0;
  19:Programs.cpp  ****     started=0;
  20:Programs.cpp  **** 	LED0_OFF;
  21:Programs.cpp  **** 	LED1_OFF;
  22:Programs.cpp  **** }
  23:Programs.cpp  **** 
  24:Programs.cpp  **** Program::~Program(){
  15               		.loc 1 24 0
  16               		.cfi_startproc
  17               	.LVL0:
  18               	/* prologue: function */
  19               	/* frame size = 0 */
  20               	/* stack size = 0 */
  21               	.L__stack_usage = 0
  22               	/* epilogue start */
  25:Programs.cpp  ****     
  26:Programs.cpp  **** }
  23               		.loc 1 26 0
  24 0000 0895      		ret
  25               		.cfi_endproc
  26               	.LFE14:
  28               	.global	_ZN7ProgramD1Ev
  29               		.set	_ZN7ProgramD1Ev,_ZN7ProgramD2Ev
  30               	.global	_ZN7Program4showEv
  32               	_ZN7Program4showEv:
  33               	.LFB19:
  27:Programs.cpp  **** 
  28:Programs.cpp  **** 
  29:Programs.cpp  **** void Program::start(uint32_t time){
  30:Programs.cpp  ****     myBeep.longB();
  31:Programs.cpp  ****     started=1;
  32:Programs.cpp  ****     pTime=time;
  33:Programs.cpp  ****     LED1_ON;
  34:Programs.cpp  ****     LED0_OFF;
  35:Programs.cpp  ****     switch(selectedProgram){
  36:Programs.cpp  ****         case 0:
  37:Programs.cpp  ****             lapNb=20;
  38:Programs.cpp  ****             lapTime=300;
  39:Programs.cpp  ****         break;
  40:Programs.cpp  ****         case 1:
  41:Programs.cpp  ****             lapNb=20;
  42:Programs.cpp  ****             lapTime=450;
  43:Programs.cpp  ****         break;
  44:Programs.cpp  ****         case 2:
  45:Programs.cpp  ****             lapNb=30;
  46:Programs.cpp  ****             lapTime=300;
  47:Programs.cpp  ****         break;
  48:Programs.cpp  ****         case 3:
  49:Programs.cpp  ****             lapNb=30;
  50:Programs.cpp  ****             lapTime=450;
  51:Programs.cpp  ****         break;
  52:Programs.cpp  ****         case 4:
  53:Programs.cpp  ****             lapNb=0;
  54:Programs.cpp  ****             lapTime=LL_Tlap[lapNb];
  55:Programs.cpp  ****             startTime=time;
  56:Programs.cpp  ****     }
  57:Programs.cpp  **** }
  58:Programs.cpp  **** void Program::stop(void){
  59:Programs.cpp  ****     myBeep.longB();    
  60:Programs.cpp  ****     LED0_ON;
  61:Programs.cpp  ****     LED1_OFF;
  62:Programs.cpp  ****     started=0;
  63:Programs.cpp  **** }
  64:Programs.cpp  **** void Program::update(uint32_t time){
  65:Programs.cpp  ****     if (time>(pTime+lapTime)){
  66:Programs.cpp  ****         switch(selectedProgram){
  67:Programs.cpp  ****             case 4:
  68:Programs.cpp  ****                 pTime+=lapTime;
  69:Programs.cpp  ****                 if((time-startTime)>LL_Tnext[lapNb]){
  70:Programs.cpp  ****                     if(++lapNb>12){
  71:Programs.cpp  ****                         stop();
  72:Programs.cpp  ****                         return;
  73:Programs.cpp  ****                     }
  74:Programs.cpp  ****                     lapTime=LL_Tlap[lapNb];
  75:Programs.cpp  ****                     myBeep.dualB(); // dual when change of palier
  76:Programs.cpp  ****                 }else{
  77:Programs.cpp  ****                     myBeep.singleB();//single when in same palier
  78:Programs.cpp  ****                 }
  79:Programs.cpp  ****             break;
  80:Programs.cpp  ****             default:
  81:Programs.cpp  ****                 lapNb--;
  82:Programs.cpp  ****                 pTime+=lapTime;
  83:Programs.cpp  ****                 if(lapNb==0){
  84:Programs.cpp  ****                     stop();
  85:Programs.cpp  ****                     return;
  86:Programs.cpp  ****                 }
  87:Programs.cpp  ****                 if(lapNb%2){
  88:Programs.cpp  ****                     myBeep.singleB();
  89:Programs.cpp  ****                 }else{
  90:Programs.cpp  ****                     myBeep.dualB();
  91:Programs.cpp  ****                 }
  92:Programs.cpp  ****             break;
  93:Programs.cpp  ****         }
  94:Programs.cpp  ****     }
  95:Programs.cpp  **** }
  96:Programs.cpp  **** 
  97:Programs.cpp  **** void Program::show(void){
  34               		.loc 1 97 0
  35               		.cfi_startproc
  36               	.LVL1:
  37 0002 CF93      		push r28
  38               	.LCFI0:
  39               		.cfi_def_cfa_offset 3
  40               		.cfi_offset 28, -2
  41 0004 DF93      		push r29
  42               	.LCFI1:
  43               		.cfi_def_cfa_offset 4
  44               		.cfi_offset 29, -3
  45               	/* prologue: function */
  46               	/* frame size = 0 */
  47               	/* stack size = 2 */
  48               	.L__stack_usage = 2
  49 0006 EC01      		movw r28,r24
  98:Programs.cpp  ****     if(started){
  50               		.loc 1 98 0
  51 0008 2A81      		ldd r18,Y+2
  52 000a 2223      		tst r18
  53 000c 01F0      		breq .L3
  99:Programs.cpp  ****         myLCD->setNb(lapNb,2);        
  54               		.loc 1 99 0
  55 000e 6F85      		ldd r22,Y+15
  56 0010 70E0      		ldi r23,0
  57 0012 90E0      		ldi r25,0
  58 0014 80E0      		ldi r24,0
  59               	.LVL2:
  60 0016 42E0      		ldi r20,lo8(2)
  61               	/* epilogue start */
 100:Programs.cpp  ****     }else{
 101:Programs.cpp  ****         myLCD->setDigit(4,Sym1[selectedProgram]);
 102:Programs.cpp  ****         myLCD->setDigit(5,Sym2[selectedProgram]);
 103:Programs.cpp  ****     }
 104:Programs.cpp  **** }
  62               		.loc 1 104 0
  63 0018 DF91      		pop r29
  64 001a CF91      		pop r28
  65               	.LVL3:
  99:Programs.cpp  ****         myLCD->setNb(lapNb,2);        
  66               		.loc 1 99 0
  67 001c 0C94 0000 		jmp _ZN3LCD5setNbElh
  68               	.LVL4:
  69               	.L3:
 101:Programs.cpp  ****         myLCD->setDigit(5,Sym2[selectedProgram]);
  70               		.loc 1 101 0
  71 0020 E981      		ldd r30,Y+1
  72 0022 F0E0      		ldi r31,0
  73 0024 E050      		subi r30,lo8(-(_ZN7Program4Sym1E))
  74 0026 F040      		sbci r31,hi8(-(_ZN7Program4Sym1E))
  75 0028 6081      		ld r22,Z
  76 002a 84E0      		ldi r24,lo8(4)
  77               	.LVL5:
  78 002c 0E94 0000 		call _ZN3LCD8setDigitEhNS_6SymbolE
  79               	.LVL6:
 102:Programs.cpp  ****     }
  80               		.loc 1 102 0
  81 0030 E981      		ldd r30,Y+1
  82 0032 F0E0      		ldi r31,0
  83 0034 E050      		subi r30,lo8(-(_ZN7Program4Sym2E))
  84 0036 F040      		sbci r31,hi8(-(_ZN7Program4Sym2E))
  85 0038 6081      		ld r22,Z
  86 003a 85E0      		ldi r24,lo8(5)
  87               	/* epilogue start */
  88               		.loc 1 104 0
  89 003c DF91      		pop r29
  90 003e CF91      		pop r28
  91               	.LVL7:
 102:Programs.cpp  ****     }
  92               		.loc 1 102 0
  93 0040 0C94 0000 		jmp _ZN3LCD8setDigitEhh
  94               	.LVL8:
  95               		.cfi_endproc
  96               	.LFE19:
  98               	.global	_ZN4BeepC2Ev
 100               	_ZN4BeepC2Ev:
 101               	.LFB21:
 105:Programs.cpp  **** 
 106:Programs.cpp  **** Beep::Beep(void){
 102               		.loc 1 106 0
 103               		.cfi_startproc
 104               	.LVL9:
 105               	/* prologue: function */
 106               	/* frame size = 0 */
 107               	/* stack size = 0 */
 108               	.L__stack_usage = 0
 109               	.LBB8:
 107:Programs.cpp  ****     DDRB|=(1<<PINB4);//buzzer output is PINB4
 110               		.loc 1 107 0
 111 0044 249A      		sbi 0x4,4
 108:Programs.cpp  ****     PORTB&=~(1<<PINB4);
 112               		.loc 1 108 0
 113 0046 2C98      		cbi 0x5,4
 109:Programs.cpp  ****     //TCCR0A|=(1<<WGM01)|(1<<COM0A0)|(1<<CS01)|(1<<CS00);//toggle OC0A on compare match, 64 prescal
 110:Programs.cpp  ****     OCR0A=195;// 8MHz/8 /2 /(191+1) = 2.6kHz
 114               		.loc 1 110 0
 115 0048 83EC      		ldi r24,lo8(-61)
 116               	.LVL10:
 117 004a 87BD      		out 0x27,r24
 118               	/* epilogue start */
 119               	.LBE8:
 111:Programs.cpp  **** }
 120               		.loc 1 111 0
 121 004c 0895      		ret
 122               		.cfi_endproc
 123               	.LFE21:
 125               	.global	_ZN4BeepC1Ev
 126               		.set	_ZN4BeepC1Ev,_ZN4BeepC2Ev
 127               	.global	_ZN7ProgramC2EP3LCD
 129               	_ZN7ProgramC2EP3LCD:
 130               	.LFB11:
  16:Programs.cpp  ****     myLCD=l;
 131               		.loc 1 16 0
 132               		.cfi_startproc
 133               	.LVL11:
 134 004e 0F93      		push r16
 135               	.LCFI2:
 136               		.cfi_def_cfa_offset 3
 137               		.cfi_offset 16, -2
 138 0050 1F93      		push r17
 139               	.LCFI3:
 140               		.cfi_def_cfa_offset 4
 141               		.cfi_offset 17, -3
 142 0052 CF93      		push r28
 143               	.LCFI4:
 144               		.cfi_def_cfa_offset 5
 145               		.cfi_offset 28, -4
 146 0054 DF93      		push r29
 147               	.LCFI5:
 148               		.cfi_def_cfa_offset 6
 149               		.cfi_offset 29, -5
 150               	/* prologue: function */
 151               	/* frame size = 0 */
 152               	/* stack size = 4 */
 153               	.L__stack_usage = 4
 154 0056 EC01      		movw r28,r24
 155 0058 8B01      		movw r16,r22
 156               	.LBB9:
  16:Programs.cpp  ****     myLCD=l;
 157               		.loc 1 16 0
 158 005a 0E94 0000 		call _ZN4BeepC1Ev
 159               	.LVL12:
  17:Programs.cpp  ****     selectedProgram=0;
 160               		.loc 1 17 0
 161 005e 1C83      		std Y+4,r17
 162 0060 0B83      		std Y+3,r16
  18:Programs.cpp  ****     started=0;
 163               		.loc 1 18 0
 164 0062 1982      		std Y+1,__zero_reg__
  19:Programs.cpp  **** 	LED0_OFF;
 165               		.loc 1 19 0
 166 0064 1A82      		std Y+2,__zero_reg__
  20:Programs.cpp  **** 	LED1_OFF;
 167               		.loc 1 20 0
 168 0066 5E98      		cbi 0xb,6
  21:Programs.cpp  **** }
 169               		.loc 1 21 0
 170 0068 5F98      		cbi 0xb,7
 171               	/* epilogue start */
 172               	.LBE9:
  22:Programs.cpp  **** 
 173               		.loc 1 22 0
 174 006a DF91      		pop r29
 175 006c CF91      		pop r28
 176               	.LVL13:
 177 006e 1F91      		pop r17
 178 0070 0F91      		pop r16
 179               	.LVL14:
 180 0072 0895      		ret
 181               		.cfi_endproc
 182               	.LFE11:
 184               	.global	_ZN7ProgramC1EP3LCD
 185               		.set	_ZN7ProgramC1EP3LCD,_ZN7ProgramC2EP3LCD
 186               	.global	_ZN4BeepD2Ev
 188               	_ZN4BeepD2Ev:
 189               	.LFB24:
 112:Programs.cpp  **** Beep::~Beep(void){
 190               		.loc 1 112 0
 191               		.cfi_startproc
 192               	.LVL15:
 193               	/* prologue: function */
 194               	/* frame size = 0 */
 195               	/* stack size = 0 */
 196               	.L__stack_usage = 0
 197               	/* epilogue start */
 113:Programs.cpp  ****     
 114:Programs.cpp  **** }
 198               		.loc 1 114 0
 199 0074 0895      		ret
 200               		.cfi_endproc
 201               	.LFE24:
 203               	.global	_ZN4BeepD1Ev
 204               		.set	_ZN4BeepD1Ev,_ZN4BeepD2Ev
 205               	.global	_ZN4Beep2onEv
 207               	_ZN4Beep2onEv:
 208               	.LFB30:
 115:Programs.cpp  **** 
 116:Programs.cpp  **** void Beep::singleB(void){
 117:Programs.cpp  ****     cnt=3;
 118:Programs.cpp  ****     on();
 119:Programs.cpp  **** }
 120:Programs.cpp  **** void Beep::dualB(void){
 121:Programs.cpp  ****     cnt=5;
 122:Programs.cpp  ****     on();
 123:Programs.cpp  **** }
 124:Programs.cpp  **** void Beep::longB(void){
 125:Programs.cpp  ****     cnt=7;
 126:Programs.cpp  ****     on();
 127:Programs.cpp  **** }
 128:Programs.cpp  **** void Beep::update(void){
 129:Programs.cpp  ****     if(cnt==0)return;
 130:Programs.cpp  ****     cnt--;
 131:Programs.cpp  ****     if(cnt>6)return;
 132:Programs.cpp  ****     if(cnt==6)cnt=1;
 133:Programs.cpp  ****     if(cnt%2){
 134:Programs.cpp  ****         on();
 135:Programs.cpp  ****     }else{
 136:Programs.cpp  ****         off();
 137:Programs.cpp  ****     }
 138:Programs.cpp  **** }
 139:Programs.cpp  **** void Beep::on(void){
 209               		.loc 1 139 0
 210               		.cfi_startproc
 211               	.LVL16:
 212               	/* prologue: function */
 213               	/* frame size = 0 */
 214               	/* stack size = 0 */
 215               	.L__stack_usage = 0
 140:Programs.cpp  ****     TCCR0A|=(1<<WGM01)|(1<<COM0A0)|(1<<CS01);//|(1<<CS00);//toggle OC0A on compare match, 8 prescal
 216               		.loc 1 140 0
 217 0076 84B5      		in r24,0x24
 218               	.LVL17:
 219 0078 8A61      		ori r24,lo8(26)
 220 007a 84BD      		out 0x24,r24
 221               	/* epilogue start */
 141:Programs.cpp  **** }
 222               		.loc 1 141 0
 223 007c 0895      		ret
 224               		.cfi_endproc
 225               	.LFE30:
 227               	.global	_ZN4Beep7singleBEv
 229               	_ZN4Beep7singleBEv:
 230               	.LFB26:
 116:Programs.cpp  ****     cnt=3;
 231               		.loc 1 116 0
 232               		.cfi_startproc
 233               	.LVL18:
 234               	/* prologue: function */
 235               	/* frame size = 0 */
 236               	/* stack size = 0 */
 237               	.L__stack_usage = 0
 117:Programs.cpp  ****     on();
 238               		.loc 1 117 0
 239 007e 23E0      		ldi r18,lo8(3)
 240 0080 FC01      		movw r30,r24
 241 0082 2083      		st Z,r18
 118:Programs.cpp  **** }
 242               		.loc 1 118 0
 243 0084 0C94 0000 		jmp _ZN4Beep2onEv
 244               	.LVL19:
 245               		.cfi_endproc
 246               	.LFE26:
 248               	.global	_ZN4Beep5dualBEv
 250               	_ZN4Beep5dualBEv:
 251               	.LFB27:
 120:Programs.cpp  ****     cnt=5;
 252               		.loc 1 120 0
 253               		.cfi_startproc
 254               	.LVL20:
 255               	/* prologue: function */
 256               	/* frame size = 0 */
 257               	/* stack size = 0 */
 258               	.L__stack_usage = 0
 121:Programs.cpp  ****     on();
 259               		.loc 1 121 0
 260 0088 25E0      		ldi r18,lo8(5)
 261 008a FC01      		movw r30,r24
 262 008c 2083      		st Z,r18
 122:Programs.cpp  **** }
 263               		.loc 1 122 0
 264 008e 0C94 0000 		jmp _ZN4Beep2onEv
 265               	.LVL21:
 266               		.cfi_endproc
 267               	.LFE27:
 269               	.global	_ZN4Beep5longBEv
 271               	_ZN4Beep5longBEv:
 272               	.LFB28:
 124:Programs.cpp  ****     cnt=7;
 273               		.loc 1 124 0
 274               		.cfi_startproc
 275               	.LVL22:
 276               	/* prologue: function */
 277               	/* frame size = 0 */
 278               	/* stack size = 0 */
 279               	.L__stack_usage = 0
 125:Programs.cpp  ****     on();
 280               		.loc 1 125 0
 281 0092 27E0      		ldi r18,lo8(7)
 282 0094 FC01      		movw r30,r24
 283 0096 2083      		st Z,r18
 126:Programs.cpp  **** }
 284               		.loc 1 126 0
 285 0098 0C94 0000 		jmp _ZN4Beep2onEv
 286               	.LVL23:
 287               		.cfi_endproc
 288               	.LFE28:
 290               	.global	_ZN7Program5startEm
 292               	_ZN7Program5startEm:
 293               	.LFB16:
  29:Programs.cpp  ****     myBeep.longB();
 294               		.loc 1 29 0
 295               		.cfi_startproc
 296               	.LVL24:
 297 009c CF92      		push r12
 298               	.LCFI6:
 299               		.cfi_def_cfa_offset 3
 300               		.cfi_offset 12, -2
 301 009e DF92      		push r13
 302               	.LCFI7:
 303               		.cfi_def_cfa_offset 4
 304               		.cfi_offset 13, -3
 305 00a0 EF92      		push r14
 306               	.LCFI8:
 307               		.cfi_def_cfa_offset 5
 308               		.cfi_offset 14, -4
 309 00a2 FF92      		push r15
 310               	.LCFI9:
 311               		.cfi_def_cfa_offset 6
 312               		.cfi_offset 15, -5
 313 00a4 CF93      		push r28
 314               	.LCFI10:
 315               		.cfi_def_cfa_offset 7
 316               		.cfi_offset 28, -6
 317 00a6 DF93      		push r29
 318               	.LCFI11:
 319               		.cfi_def_cfa_offset 8
 320               		.cfi_offset 29, -7
 321               	/* prologue: function */
 322               	/* frame size = 0 */
 323               	/* stack size = 6 */
 324               	.L__stack_usage = 6
 325 00a8 EC01      		movw r28,r24
 326 00aa 6A01      		movw r12,r20
 327 00ac 7B01      		movw r14,r22
  30:Programs.cpp  ****     started=1;
 328               		.loc 1 30 0
 329 00ae 0E94 0000 		call _ZN4Beep5longBEv
 330               	.LVL25:
  31:Programs.cpp  ****     pTime=time;
 331               		.loc 1 31 0
 332 00b2 81E0      		ldi r24,lo8(1)
 333 00b4 8A83      		std Y+2,r24
  32:Programs.cpp  ****     LED1_ON;
 334               		.loc 1 32 0
 335 00b6 CF82      		std Y+7,r12
 336 00b8 D886      		std Y+8,r13
 337 00ba E986      		std Y+9,r14
 338 00bc FA86      		std Y+10,r15
  33:Programs.cpp  ****     LED0_OFF;
 339               		.loc 1 33 0
 340 00be 5F9A      		sbi 0xb,7
  34:Programs.cpp  ****     switch(selectedProgram){
 341               		.loc 1 34 0
 342 00c0 5E98      		cbi 0xb,6
  35:Programs.cpp  ****         case 0:
 343               		.loc 1 35 0
 344 00c2 8981      		ldd r24,Y+1
 345 00c4 8230      		cpi r24,lo8(2)
 346 00c6 01F0      		breq .L13
 347 00c8 00F4      		brsh .L14
 348 00ca 8823      		tst r24
 349 00cc 01F0      		breq .L15
 350 00ce 8130      		cpi r24,lo8(1)
 351 00d0 01F0      		breq .L16
 352               	.L11:
 353               	/* epilogue start */
  57:Programs.cpp  **** void Program::stop(void){
 354               		.loc 1 57 0
 355 00d2 DF91      		pop r29
 356 00d4 CF91      		pop r28
 357               	.LVL26:
 358 00d6 FF90      		pop r15
 359 00d8 EF90      		pop r14
 360 00da DF90      		pop r13
 361 00dc CF90      		pop r12
 362 00de 0895      		ret
 363               	.LVL27:
 364               	.L14:
  35:Programs.cpp  ****         case 0:
 365               		.loc 1 35 0
 366 00e0 8330      		cpi r24,lo8(3)
 367 00e2 01F0      		breq .L17
 368 00e4 8430      		cpi r24,lo8(4)
 369 00e6 01F4      		brne .L11
  53:Programs.cpp  ****             lapTime=LL_Tlap[lapNb];
 370               		.loc 1 53 0
 371 00e8 1F86      		std Y+15,__zero_reg__
  54:Programs.cpp  ****             startTime=time;
 372               		.loc 1 54 0
 373 00ea 8AE5      		ldi r24,lo8(90)
 374 00ec 90E0      		ldi r25,0
 375 00ee 9E83      		std Y+6,r25
 376 00f0 8D83      		std Y+5,r24
  55:Programs.cpp  ****     }
 377               		.loc 1 55 0
 378 00f2 CB86      		std Y+11,r12
 379 00f4 DC86      		std Y+12,r13
 380 00f6 ED86      		std Y+13,r14
 381 00f8 FE86      		std Y+14,r15
  57:Programs.cpp  **** void Program::stop(void){
 382               		.loc 1 57 0
 383 00fa 00C0      		rjmp .L11
 384               	.L15:
  37:Programs.cpp  ****             lapTime=300;
 385               		.loc 1 37 0
 386 00fc 84E1      		ldi r24,lo8(20)
 387               	.L21:
  45:Programs.cpp  ****             lapTime=300;
 388               		.loc 1 45 0
 389 00fe 8F87      		std Y+15,r24
  46:Programs.cpp  ****         break;
 390               		.loc 1 46 0
 391 0100 8CE2      		ldi r24,lo8(44)
 392 0102 91E0      		ldi r25,lo8(1)
 393               	.L19:
  50:Programs.cpp  ****         break;
 394               		.loc 1 50 0
 395 0104 9E83      		std Y+6,r25
 396 0106 8D83      		std Y+5,r24
  51:Programs.cpp  ****         case 4:
 397               		.loc 1 51 0
 398 0108 00C0      		rjmp .L11
 399               	.L16:
  41:Programs.cpp  ****             lapTime=450;
 400               		.loc 1 41 0
 401 010a 84E1      		ldi r24,lo8(20)
 402               	.L20:
  49:Programs.cpp  ****             lapTime=450;
 403               		.loc 1 49 0
 404 010c 8F87      		std Y+15,r24
  50:Programs.cpp  ****         break;
 405               		.loc 1 50 0
 406 010e 82EC      		ldi r24,lo8(-62)
 407 0110 91E0      		ldi r25,lo8(1)
 408 0112 00C0      		rjmp .L19
 409               	.L13:
  45:Programs.cpp  ****             lapTime=300;
 410               		.loc 1 45 0
 411 0114 8EE1      		ldi r24,lo8(30)
 412 0116 00C0      		rjmp .L21
 413               	.L17:
  49:Programs.cpp  ****             lapTime=450;
 414               		.loc 1 49 0
 415 0118 8EE1      		ldi r24,lo8(30)
 416 011a 00C0      		rjmp .L20
 417               		.cfi_endproc
 418               	.LFE16:
 420               	.global	_ZN7Program4stopEv
 422               	_ZN7Program4stopEv:
 423               	.LFB17:
  58:Programs.cpp  ****     myBeep.longB();    
 424               		.loc 1 58 0
 425               		.cfi_startproc
 426               	.LVL28:
 427 011c CF93      		push r28
 428               	.LCFI12:
 429               		.cfi_def_cfa_offset 3
 430               		.cfi_offset 28, -2
 431 011e DF93      		push r29
 432               	.LCFI13:
 433               		.cfi_def_cfa_offset 4
 434               		.cfi_offset 29, -3
 435               	/* prologue: function */
 436               	/* frame size = 0 */
 437               	/* stack size = 2 */
 438               	.L__stack_usage = 2
 439 0120 EC01      		movw r28,r24
  59:Programs.cpp  ****     LED0_ON;
 440               		.loc 1 59 0
 441 0122 0E94 0000 		call _ZN4Beep5longBEv
 442               	.LVL29:
  60:Programs.cpp  ****     LED1_OFF;
 443               		.loc 1 60 0
 444 0126 5E9A      		sbi 0xb,6
  61:Programs.cpp  ****     started=0;
 445               		.loc 1 61 0
 446 0128 5F98      		cbi 0xb,7
  62:Programs.cpp  **** }
 447               		.loc 1 62 0
 448 012a 1A82      		std Y+2,__zero_reg__
 449               	/* epilogue start */
  63:Programs.cpp  **** void Program::update(uint32_t time){
 450               		.loc 1 63 0
 451 012c DF91      		pop r29
 452 012e CF91      		pop r28
 453               	.LVL30:
 454 0130 0895      		ret
 455               		.cfi_endproc
 456               	.LFE17:
 458               	.global	_ZN7Program6updateEm
 460               	_ZN7Program6updateEm:
 461               	.LFB18:
  64:Programs.cpp  ****     if (time>(pTime+lapTime)){
 462               		.loc 1 64 0
 463               		.cfi_startproc
 464               	.LVL31:
 465 0132 CF92      		push r12
 466               	.LCFI14:
 467               		.cfi_def_cfa_offset 3
 468               		.cfi_offset 12, -2
 469 0134 DF92      		push r13
 470               	.LCFI15:
 471               		.cfi_def_cfa_offset 4
 472               		.cfi_offset 13, -3
 473 0136 EF92      		push r14
 474               	.LCFI16:
 475               		.cfi_def_cfa_offset 5
 476               		.cfi_offset 14, -4
 477 0138 FF92      		push r15
 478               	.LCFI17:
 479               		.cfi_def_cfa_offset 6
 480               		.cfi_offset 15, -5
 481               	/* prologue: function */
 482               	/* frame size = 0 */
 483               	/* stack size = 4 */
 484               	.L__stack_usage = 4
  65:Programs.cpp  ****         switch(selectedProgram){
 485               		.loc 1 65 0
 486 013a FC01      		movw r30,r24
 487 013c 2581      		ldd r18,Z+5
 488 013e 3681      		ldd r19,Z+6
 489 0140 C780      		ldd r12,Z+7
 490 0142 D084      		ldd r13,Z+8
 491 0144 E184      		ldd r14,Z+9
 492 0146 F284      		ldd r15,Z+10
 493 0148 C20E      		add r12,r18
 494 014a D31E      		adc r13,r19
 495 014c E11C      		adc r14,__zero_reg__
 496 014e F11C      		adc r15,__zero_reg__
 497 0150 C416      		cp r12,r20
 498 0152 D506      		cpc r13,r21
 499 0154 E606      		cpc r14,r22
 500 0156 F706      		cpc r15,r23
 501 0158 00F0      		brlo .+2
 502 015a 00C0      		rjmp .L23
 503 015c 2785      		ldd r18,Z+15
  66:Programs.cpp  ****             case 4:
 504               		.loc 1 66 0
 505 015e 3181      		ldd r19,Z+1
 506 0160 3430      		cpi r19,lo8(4)
 507 0162 01F4      		brne .L34
  68:Programs.cpp  ****                 if((time-startTime)>LL_Tnext[lapNb]){
 508               		.loc 1 68 0
 509 0164 C782      		std Z+7,r12
 510 0166 D086      		std Z+8,r13
 511 0168 E186      		std Z+9,r14
 512 016a F286      		std Z+10,r15
  69:Programs.cpp  ****                     if(++lapNb>12){
 513               		.loc 1 69 0
 514 016c C384      		ldd r12,Z+11
 515 016e D484      		ldd r13,Z+12
 516 0170 E584      		ldd r14,Z+13
 517 0172 F684      		ldd r15,Z+14
 518 0174 4C19      		sub r20,r12
 519 0176 5D09      		sbc r21,r13
 520 0178 6E09      		sbc r22,r14
 521 017a 7F09      		sbc r23,r15
 522               	.LVL32:
 523 017c E22F      		mov r30,r18
 524 017e F0E0      		ldi r31,0
 525 0180 EE0F      		lsl r30
 526 0182 FF1F      		rol r31
 527 0184 E050      		subi r30,lo8(-(_ZN7Program8LL_TnextE))
 528 0186 F040      		sbci r31,hi8(-(_ZN7Program8LL_TnextE))
 529 0188 C080      		ld r12,Z
 530 018a D180      		ldd r13,Z+1
 531 018c F12C      		mov r15,__zero_reg__
 532 018e E12C      		mov r14,__zero_reg__
 533 0190 C416      		cp r12,r20
 534 0192 D506      		cpc r13,r21
 535 0194 E606      		cpc r14,r22
 536 0196 F706      		cpc r15,r23
 537 0198 00F4      		brsh .L35
  70:Programs.cpp  ****                         stop();
 538               		.loc 1 70 0
 539 019a 2F5F      		subi r18,lo8(-(1))
 540 019c FC01      		movw r30,r24
 541 019e 2787      		std Z+15,r18
 542 01a0 2D30      		cpi r18,lo8(13)
 543 01a2 00F0      		brlo .L28
 544               	.L29:
 545               	/* epilogue start */
  95:Programs.cpp  **** 
 546               		.loc 1 95 0
 547 01a4 FF90      		pop r15
 548 01a6 EF90      		pop r14
 549 01a8 DF90      		pop r13
 550 01aa CF90      		pop r12
  71:Programs.cpp  ****                         return;
 551               		.loc 1 71 0
 552 01ac 0C94 0000 		jmp _ZN7Program4stopEv
 553               	.LVL33:
 554               	.L28:
  74:Programs.cpp  ****                     myBeep.dualB(); // dual when change of palier
 555               		.loc 1 74 0
 556 01b0 E22F      		mov r30,r18
 557 01b2 F0E0      		ldi r31,0
 558 01b4 E050      		subi r30,lo8(-(_ZN7Program7LL_TlapE))
 559 01b6 F040      		sbci r31,hi8(-(_ZN7Program7LL_TlapE))
 560 01b8 2081      		ld r18,Z
 561 01ba 30E0      		ldi r19,0
 562 01bc FC01      		movw r30,r24
 563 01be 3683      		std Z+6,r19
 564 01c0 2583      		std Z+5,r18
 565               	.L30:
 566               	/* epilogue start */
  95:Programs.cpp  **** 
 567               		.loc 1 95 0
 568 01c2 FF90      		pop r15
 569 01c4 EF90      		pop r14
 570 01c6 DF90      		pop r13
 571 01c8 CF90      		pop r12
  90:Programs.cpp  ****                 }
 572               		.loc 1 90 0
 573 01ca 0C94 0000 		jmp _ZN4Beep5dualBEv
 574               	.LVL34:
 575               	.L34:
  81:Programs.cpp  ****                 pTime+=lapTime;
 576               		.loc 1 81 0
 577 01ce 2150      		subi r18,lo8(-(-1))
 578 01d0 2787      		std Z+15,r18
  82:Programs.cpp  ****                 if(lapNb==0){
 579               		.loc 1 82 0
 580 01d2 C782      		std Z+7,r12
 581 01d4 D086      		std Z+8,r13
 582 01d6 E186      		std Z+9,r14
 583 01d8 F286      		std Z+10,r15
  83:Programs.cpp  ****                     stop();
 584               		.loc 1 83 0
 585 01da 2223      		tst r18
 586 01dc 01F0      		breq .L29
  87:Programs.cpp  ****                     myBeep.singleB();
 587               		.loc 1 87 0
 588 01de 20FF      		sbrs r18,0
 589 01e0 00C0      		rjmp .L30
 590               	.LVL35:
 591               	.L35:
 592               	/* epilogue start */
  95:Programs.cpp  **** 
 593               		.loc 1 95 0
 594 01e2 FF90      		pop r15
 595 01e4 EF90      		pop r14
 596 01e6 DF90      		pop r13
 597 01e8 CF90      		pop r12
  88:Programs.cpp  ****                 }else{
 598               		.loc 1 88 0
 599 01ea 0C94 0000 		jmp _ZN4Beep7singleBEv
 600               	.LVL36:
 601               	.L23:
 602               	/* epilogue start */
  95:Programs.cpp  **** 
 603               		.loc 1 95 0
 604 01ee FF90      		pop r15
 605 01f0 EF90      		pop r14
 606 01f2 DF90      		pop r13
 607 01f4 CF90      		pop r12
 608 01f6 0895      		ret
 609               		.cfi_endproc
 610               	.LFE18:
 612               	.global	_ZN4Beep6updateEv
 614               	_ZN4Beep6updateEv:
 615               	.LFB29:
 128:Programs.cpp  ****     if(cnt==0)return;
 616               		.loc 1 128 0
 617               		.cfi_startproc
 618               	.LVL37:
 619               	/* prologue: function */
 620               	/* frame size = 0 */
 621               	/* stack size = 0 */
 622               	.L__stack_usage = 0
 623 01f8 FC01      		movw r30,r24
 129:Programs.cpp  ****     cnt--;
 624               		.loc 1 129 0
 625 01fa 9081      		ld r25,Z
 626 01fc 9923      		tst r25
 627 01fe 01F0      		breq .L36
 130:Programs.cpp  ****     if(cnt>6)return;
 628               		.loc 1 130 0
 629 0200 9150      		subi r25,lo8(-(-1))
 630 0202 9083      		st Z,r25
 131:Programs.cpp  ****     if(cnt==6)cnt=1;
 631               		.loc 1 131 0
 632 0204 9730      		cpi r25,lo8(7)
 633 0206 00F4      		brsh .L36
 132:Programs.cpp  ****     if(cnt%2){
 634               		.loc 1 132 0
 635 0208 9630      		cpi r25,lo8(6)
 636 020a 01F4      		brne .L40
 132:Programs.cpp  ****     if(cnt%2){
 637               		.loc 1 132 0 is_stmt 0 discriminator 1
 638 020c 81E0      		ldi r24,lo8(1)
 639               	.LVL38:
 640 020e 8083      		st Z,r24
 641               	.L40:
 133:Programs.cpp  ****         on();
 642               		.loc 1 133 0 is_stmt 1
 643 0210 8081      		ld r24,Z
 644 0212 80FF      		sbrs r24,0
 645 0214 00C0      		rjmp .L41
 134:Programs.cpp  ****     }else{
 646               		.loc 1 134 0
 647 0216 CF01      		movw r24,r30
 648 0218 0C94 0000 		jmp _ZN4Beep2onEv
 649               	.LVL39:
 650               	.L41:
 651               	.LBB10:
 652               	.LBB11:
 142:Programs.cpp  **** void Beep::off(void){
 143:Programs.cpp  ****     TCCR0A=0;
 653               		.loc 1 143 0
 654 021c 14BC      		out 0x24,__zero_reg__
 655               	.LVL40:
 656               	.L36:
 657               	/* epilogue start */
 658               	.LBE11:
 659               	.LBE10:
 138:Programs.cpp  **** void Beep::on(void){
 660               		.loc 1 138 0
 661 021e 0895      		ret
 662               		.cfi_endproc
 663               	.LFE29:
 665               	.global	_ZN4Beep3offEv
 667               	_ZN4Beep3offEv:
 668               	.LFB31:
 142:Programs.cpp  **** void Beep::off(void){
 669               		.loc 1 142 0
 670               		.cfi_startproc
 671               	.LVL41:
 672               	/* prologue: function */
 673               	/* frame size = 0 */
 674               	/* stack size = 0 */
 675               	.L__stack_usage = 0
 676               		.loc 1 143 0
 677 0220 14BC      		out 0x24,__zero_reg__
 678               	/* epilogue start */
 144:Programs.cpp  **** }
 679               		.loc 1 144 0
 680 0222 0895      		ret
 681               		.cfi_endproc
 682               	.LFE31:
 684               	.global	_ZN7Program8LL_TnextE
 685               		.section	.rodata
 688               	_ZN7Program8LL_TnextE:
 689 0000 9204      		.word	1170
 690 0002 E306      		.word	1763
 691 0004 1309      		.word	2323
 692 0006 710B      		.word	2929
 693 0008 F90D      		.word	3577
 694 000a 1E10      		.word	4126
 695 000c 6C12      		.word	4716
 696 000e AC14      		.word	5292
 697 0010 0D17      		.word	5901
 698 0012 5719      		.word	6487
 699 0014 C01B      		.word	7104
 700 0016 141E      		.word	7700
 701 0018 8420      		.word	8324
 702               	.global	_ZN7Program7LL_TlapE
 705               	_ZN7Program7LL_TlapE:
 706 001a 5A        		.byte	90
 707 001b 55        		.byte	85
 708 001c 50        		.byte	80
 709 001d 4C        		.byte	76
 710 001e 48        		.byte	72
 711 001f 45        		.byte	69
 712 0020 41        		.byte	65
 713 0021 3A        		.byte	58
 714 0022 37        		.byte	55
 715 0023 35        		.byte	53
 716 0024 33        		.byte	51
 717 0025 32        		.byte	50
 718 0026 30        		.byte	48
 719               	.global	_ZN7Program4Sym2E
 722               	_ZN7Program4Sym2E:
 723 0027 03        		.byte	3
 724 0028 04        		.byte	4
 725 0029 03        		.byte	3
 726 002a 04        		.byte	4
 727 002b 00        		.byte	0
 728               	.global	_ZN7Program4Sym1E
 731               	_ZN7Program4Sym1E:
 732 002c 50        		.byte	80
 733 002d 50        		.byte	80
 734 002e 71        		.byte	113
 735 002f 71        		.byte	113
 736 0030 38        		.byte	56
 737               		.text
 738               	.Letext0:
 739               		.file 2 "/usr/lib/avr/include/stdint.h"
 740               		.file 3 "LCD.h"
 741               		.file 4 "/usr/lib/gcc/avr/7.3.0/include/stddef.h"
 742               		.file 5 "/usr/lib/avr/include/stdlib.h"
 743               		.file 6 "Programs.h"